target datalayout = "e-m:e-p270:32:32-p271:32:32-p272:64:64-i64:64-i128:128-f80:128-n8:16:32:64-S128"
target triple = "x86_64-pc-linux-gnu"

%struct.lua_State = type { %struct.GCRef, i8, i8, i8, i8, %struct.MRef, %struct.GCRef, ptr, ptr, %struct.MRef, %struct.MRef, %struct.GCRef, %struct.GCRef, ptr, i32 }
%struct.MRef = type { i64 }
%struct.GCRef = type { i64 }
%union.TValue = type { i64 }
%struct.SBufExt = type { ptr, ptr, ptr, %struct.MRef, %union.anon.2, ptr, %struct.GCRef, %struct.GCRef, i32 }
%union.anon.2 = type { %struct.GCRef }
%struct.GCstr = type { %struct.GCRef, i8, i8, i8, i8, i32, i32, i32 }
%struct.GCudata = type { %struct.GCRef, i8, i8, i8, i8, %struct.GCRef, i32, %struct.GCRef, i32 }
%struct.global_State = type { ptr, ptr, %struct.GCState, %struct.GCstr, i8, i8, i8, i8, %struct.StrInternState, i32, %struct.GCRef, %struct.SBuf, %union.TValue, %union.TValue, %struct.Node, %union.TValue, %struct.GCupval, i32, i32, ptr, ptr, ptr, i32, i32, %struct.GCRef, %struct.MRef, %struct.MRef, %struct.PRNGState, [39 x %struct.GCRef] }
%struct.GCState = type { i64, i64, i8, i8, i8, i8, i32, %struct.GCRef, %struct.MRef, %struct.GCRef, %struct.GCRef, %struct.GCRef, %struct.GCRef, i64, i64, i32, i32, %struct.MRef }
%struct.StrInternState = type { ptr, i32, i32, i32, i8, i8, i8, i8, i64 }
%struct.SBuf = type { ptr, ptr, ptr, %struct.MRef }
%struct.Node = type { %union.TValue, %union.TValue, %struct.MRef }
%struct.GCupval = type { %struct.GCRef, i8, i8, i8, i8, %union.anon, %struct.MRef, i32 }
%union.anon = type { %struct.anon.1 }
%struct.anon.1 = type { %struct.GCRef, %struct.GCRef }
%struct.PRNGState = type { [4 x i64] }

@.str.2 = private unnamed_addr constant [7 x i8] c"buffer\00", align 1

; Function Attrs: nounwind uwtable
define internal ptr @buffer_tobuf(ptr noundef %0) #0 {
  %2 = alloca ptr, align 8
  store ptr %0, ptr %2, align 8, !tbaa !4
  %3 = load ptr, ptr %2, align 8, !tbaa !4
  %4 = getelementptr inbounds nuw %struct.lua_State, ptr %3, i32 0, i32 7
  %5 = load ptr, ptr %4, align 8, !tbaa !11
  %6 = load ptr, ptr %2, align 8, !tbaa !4
  %7 = getelementptr inbounds nuw %struct.lua_State, ptr %6, i32 0, i32 8
  %8 = load ptr, ptr %7, align 8, !tbaa !18
  %9 = icmp ult ptr %5, %8
  br i1 %9, label %10, label %30

10:                                               ; preds = %1
  %11 = load ptr, ptr %2, align 8, !tbaa !4
  %12 = getelementptr inbounds nuw %struct.lua_State, ptr %11, i32 0, i32 7
  %13 = load ptr, ptr %12, align 8, !tbaa !11
  %14 = load i64, ptr %13, align 8, !tbaa !26
  %15 = ashr i64 %14, 47
  %16 = trunc i64 %15 to i32
  %17 = icmp eq i32 %16, -13
  br i1 %17, label %18, label %30

18:                                               ; preds = %10
  %19 = load ptr, ptr %2, align 8, !tbaa !4
  %20 = getelementptr inbounds nuw %struct.lua_State, ptr %19, i32 0, i32 7
  %21 = load ptr, ptr %20, align 8, !tbaa !11
  %22 = getelementptr inbounds nuw %struct.GCRef, ptr %21, i32 0, i32 0
  %23 = load i64, ptr %22, align 8, !tbaa !26
  %24 = and i64 %23, 140737488355327
  %25 = inttoptr i64 %24 to ptr
  %26 = getelementptr inbounds nuw %struct.GCudata, ptr %25, i32 0, i32 3
  %27 = load i8, ptr %26, align 2, !tbaa !26
  %28 = zext i8 %27 to i32
  %29 = icmp eq i32 %28, 3
  br i1 %29, label %32, label %30

30:                                               ; preds = %18, %10, %1
  %31 = load ptr, ptr %2, align 8, !tbaa !4
  call void @lj_err_argtype(ptr noundef %31, i32 noundef 1, ptr noundef @.str.2) #9
  unreachable

32:                                               ; preds = %18
  %33 = load ptr, ptr %2, align 8, !tbaa !4
  %34 = getelementptr inbounds nuw %struct.lua_State, ptr %33, i32 0, i32 7
  %35 = load ptr, ptr %34, align 8, !tbaa !11
  %36 = getelementptr inbounds nuw %struct.GCRef, ptr %35, i32 0, i32 0
  %37 = load i64, ptr %36, align 8, !tbaa !26
  %38 = and i64 %37, 140737488355327
  %39 = inttoptr i64 %38 to ptr
  %40 = getelementptr inbounds %struct.GCudata, ptr %39, i64 1
  ret ptr %40
}

; Function Attrs: alwaysinline nounwind uwtable
define internal ptr @buffer_tobufw(ptr noundef %0) #3 {
  %2 = alloca ptr, align 8
  %3 = alloca ptr, align 8
  store ptr %0, ptr %2, align 8, !tbaa !4
  call void @llvm.lifetime.start.p0(i64 8, ptr %3) #8
  %4 = load ptr, ptr %2, align 8, !tbaa !4
  %5 = call ptr @buffer_tobuf(ptr noundef %4)
  store ptr %5, ptr %3, align 8, !tbaa !9
  %6 = load ptr, ptr %2, align 8, !tbaa !4
  %7 = ptrtoint ptr %6 to i64
  %8 = load ptr, ptr %3, align 8, !tbaa !9
  %9 = getelementptr inbounds nuw %struct.SBufExt, ptr %8, i32 0, i32 3
  %10 = getelementptr inbounds nuw %struct.MRef, ptr %9, i32 0, i32 0
  %11 = load i64, ptr %10, align 8, !tbaa !24
  %12 = and i64 %11, 7
  %13 = or i64 %7, %12
  %14 = load ptr, ptr %3, align 8, !tbaa !9
  %15 = getelementptr inbounds nuw %struct.SBufExt, ptr %14, i32 0, i32 3
  %16 = getelementptr inbounds nuw %struct.MRef, ptr %15, i32 0, i32 0
  store i64 %13, ptr %16, align 8, !tbaa !24
  %17 = load ptr, ptr %3, align 8, !tbaa !9
  call void @llvm.lifetime.end.p0(i64 8, ptr %3) #8
  ret ptr %17
}

; Function Attrs: nounwind uwtable
define internal i32 @lj_cf_buffer_method_putf(ptr noundef %0) #0 {
  %2 = alloca ptr, align 8
  %3 = alloca ptr, align 8
  store ptr %0, ptr %2, align 8, !tbaa !4
  call void @llvm.lifetime.start.p0(i64 8, ptr %3) #8
  %4 = load ptr, ptr %2, align 8, !tbaa !4
  %5 = call ptr @buffer_tobufw(ptr noundef %4)
  store ptr %5, ptr %3, align 8, !tbaa !9
  %6 = load ptr, ptr %2, align 8, !tbaa !4
  %7 = load ptr, ptr %3, align 8, !tbaa !9
  %8 = call i32 @lj_strfmt_putarg(ptr noundef %6, ptr noundef %7, i32 noundef 2, i32 noundef 2)
  %9 = load ptr, ptr %2, align 8, !tbaa !4
  %10 = getelementptr inbounds nuw %struct.lua_State, ptr %9, i32 0, i32 7
  %11 = load ptr, ptr %10, align 8, !tbaa !11
  %12 = getelementptr inbounds %union.TValue, ptr %11, i64 1
  %13 = load ptr, ptr %2, align 8, !tbaa !4
  %14 = getelementptr inbounds nuw %struct.lua_State, ptr %13, i32 0, i32 8
  store ptr %12, ptr %14, align 8, !tbaa !18
  %15 = load ptr, ptr %2, align 8, !tbaa !4
  %16 = getelementptr inbounds nuw %struct.lua_State, ptr %15, i32 0, i32 5
  %17 = getelementptr inbounds nuw %struct.MRef, ptr %16, i32 0, i32 0
  %18 = load i64, ptr %17, align 8, !tbaa !36
  %19 = inttoptr i64 %18 to ptr
  %20 = getelementptr inbounds nuw %struct.global_State, ptr %19, i32 0, i32 2
  %21 = getelementptr inbounds nuw %struct.GCState, ptr %20, i32 0, i32 0
  %22 = load i64, ptr %21, align 8, !tbaa !41
  %23 = load ptr, ptr %2, align 8, !tbaa !4
  %24 = getelementptr inbounds nuw %struct.lua_State, ptr %23, i32 0, i32 5
  %25 = getelementptr inbounds nuw %struct.MRef, ptr %24, i32 0, i32 0
  %26 = load i64, ptr %25, align 8, !tbaa !36
  %27 = inttoptr i64 %26 to ptr
  %28 = getelementptr inbounds nuw %struct.global_State, ptr %27, i32 0, i32 2
  %29 = getelementptr inbounds nuw %struct.GCState, ptr %28, i32 0, i32 1
  %30 = load i64, ptr %29, align 8, !tbaa !50
  %31 = icmp uge i64 %22, %30
  %32 = xor i1 %31, true
  %33 = xor i1 %32, true
  %34 = zext i1 %33 to i32
  %35 = sext i32 %34 to i64
  %36 = call i64 @llvm.expect.i64(i64 %35, i64 0)
  %37 = icmp ne i64 %36, 0
  br i1 %37, label %38, label %41

38:                                               ; preds = %1
  %39 = load ptr, ptr %2, align 8, !tbaa !4
  %40 = call i32 @lj_gc_step(ptr noundef %39)
  br label %41

41:                                               ; preds = %38, %1
  call void @llvm.lifetime.end.p0(i64 8, ptr %3) #8
  ret i32 1
}